; Function Attrs: nounwind uwtable
define dso_local void @thrmgr_group_terminate(ptr noundef %0) local_unnamed_addr #0 {
  %.not = icmp eq ptr %0, null
  br i1 %.not, label %6, label %2

2:                                                ; preds = %1
  %3 = tail call i32 @pthread_mutex_lock(ptr noundef nonnull %0) #12
  %4 = getelementptr inbounds i8, ptr %0, i64 104
  store i32 1, ptr %4, align 8
  %5 = tail call i32 @pthread_mutex_unlock(ptr noundef nonnull %0) #12
  br label %6

6:                                                ; preds = %2, %1
  ret void
}